(dp0
S'keys'
p1
S'690a95bd0d9079c34a85ce86f082ea60f0b41f7d'
p2
sS'oweiuf23'
p3
S'46153cdf30709f3cbcc3b201378fca77b454e2a3'
p4
sS'123'
p5
S'40bd001563085fc35165329ea1ff5c5ecbdbbeef'
p6
sS'eoiawjef'
p7
S'f9ef9591755e05c8b937edfc79c6b8fbf457490e'
p8
s.(dp0
S'keys'
p1
F1522162751.13544
sS'oweiuf23'
p2
F1522162760.236211
sS'123'
p3
F1522162783.908908
sS'eoiawjef'
p4
F1522162756.020983
s.